; Function Attrs: mustprogress uwtable
define void @_ZN8proxygen11SessionPool10detachIdleEPNS_13SessionHolderE(ptr nocapture noundef nonnull align 8 dereferenceable(136) %this, ptr noundef %sess) unnamed_addr #3 align 2 personality ptr @__gxx_personality_v0 {
entry:
  %idleSessionList_ = getelementptr inbounds i8, ptr %this, i64 40
  %memptr.offset.i.i = getelementptr inbounds i8, ptr %sess, i64 8
  %0 = load ptr, ptr %memptr.offset.i.i, align 8, !noalias !10
  %prev_.i5.i.i = getelementptr inbounds i8, ptr %sess, i64 16
  %1 = load ptr, ptr %prev_.i5.i.i, align 8, !noalias !10
  store ptr %0, ptr %1, align 8, !noalias !10
  %prev_.i.i.i = getelementptr inbounds i8, ptr %0, i64 8
  store ptr %1, ptr %prev_.i.i.i, align 8, !noalias !10
  %2 = load i64, ptr %idleSessionList_, align 8, !noalias !10
  %dec.i.i = add i64 %2, -1
  store i64 %dec.i.i, ptr %idleSessionList_, align 8, !noalias !10
  tail call void @llvm.memset.p0.i64(ptr noundef nonnull align 8 dereferenceable(16) %memptr.offset.i.i, i8 0, i64 16, i1 false), !noalias !10
  %threadIdleSessionController_ = getelementptr inbounds i8, ptr %this, i64 112
  %3 = load ptr, ptr %threadIdleSessionController_, align 8
  %tobool.not = icmp eq ptr %3, null
  br i1 %tobool.not, label %if.end, label %if.then

if.then:                                          ; preds = %entry
  tail call void @_ZN8proxygen27ThreadIdleSessionController12onDetachIdleEPNS_13SessionHolderE(ptr noundef nonnull align 8 dereferenceable(32) %3, ptr noundef nonnull %sess)
  br label %if.end

if.end:                                           ; preds = %if.then, %entry
  %serverIdleSessionController_ = getelementptr inbounds i8, ptr %this, i64 120
  %4 = load ptr, ptr %serverIdleSessionController_, align 8
  %tobool4.not = icmp eq ptr %4, null
  br i1 %tobool4.not, label %if.end7, label %if.then5

if.then5:                                         ; preds = %if.end
  %call = tail call noundef nonnull align 8 dereferenceable(1582) ptr @_ZNK8proxygen13SessionHolder10getSessionEv(ptr noundef nonnull align 8 dereferenceable(152) %sess)
  tail call void @_ZN8proxygen27ServerIdleSessionController17removeIdleSessionEPKNS_15HTTPSessionBaseE(ptr noundef nonnull align 8 dereferenceable(128) %4, ptr noundef nonnull %call)
  br label %if.end7

if.end7:                                          ; preds = %if.then5, %if.end
  ret void
}